target datalayout = "e-m:e-p270:32:32-p271:32:32-p272:64:64-i64:64-i128:128-f80:128-n8:16:32:64-S128"
target triple = "x86_64-unknown-linux-gnu"

%"class.v8::IndirectHandleBase" = type { ptr }
%"class.v8::Local" = type { %"class.v8::LocalBase" }
%"class.v8::LocalBase" = type { %"class.v8::IndirectHandleBase" }
%"class.v8impl::(anonymous namespace)::CallbackWrapper" = type { ptr, ptr, i64, ptr }
%"class.v8impl::(anonymous namespace)::CallbackWrapperBase" = type { %"class.v8impl::(anonymous namespace)::CallbackWrapper", ptr, ptr }
%"class.v8::ReturnValue" = type { ptr }

; Function Attrs: mustprogress nounwind uwtable
define linkonce_odr dso_local ptr @_ZN6v8impl23V8LocalValueFromJsValueEP12napi_value__(ptr noundef %v) #4 comdat {
entry:
  %this.addr.i.i = alloca ptr, align 8
  %this.addr.i3 = alloca ptr, align 8
  %this.addr.i = alloca ptr, align 8
  %retval = alloca %"class.v8::Local", align 8
  %v.addr = alloca ptr, align 8
  store ptr %v, ptr %v.addr, align 8
  store ptr %retval, ptr %this.addr.i, align 8
  %this1.i = load ptr, ptr %this.addr.i, align 8
  store ptr %this1.i, ptr %this.addr.i3, align 8
  %this1.i4 = load ptr, ptr %this.addr.i3, align 8
  store ptr %this1.i4, ptr %this.addr.i.i, align 8
  %this1.i.i = load ptr, ptr %this.addr.i.i, align 8
  store ptr null, ptr %this1.i.i, align 8
  call void @llvm.memcpy.p0.p0.i64(ptr align 1 %retval, ptr align 8 %v.addr, i64 8, i1 false)
  %coerce.dive = getelementptr inbounds %"class.v8::Local", ptr %retval, i32 0, i32 0
  %coerce.dive1 = getelementptr inbounds %"class.v8::LocalBase", ptr %coerce.dive, i32 0, i32 0
  %coerce.dive2 = getelementptr inbounds %"class.v8::IndirectHandleBase", ptr %coerce.dive1, i32 0, i32 0
  %0 = load ptr, ptr %coerce.dive2, align 8
  ret ptr %0
}

; Function Attrs: mustprogress nounwind uwtable
define internal void @_ZN6v8impl12_GLOBAL__N_123FunctionCallbackWrapper14SetReturnValueEP12napi_value__(ptr noundef nonnull align 8 dereferenceable(48) %this, ptr noundef %value) unnamed_addr #4 align 2 {
entry:
  %isolate.addr.i20 = alloca ptr, align 8
  %index.addr.i21 = alloca i32, align 4
  %addr.i = alloca i64, align 8
  %this.addr.i17 = alloca ptr, align 8
  %isolate.addr.i = alloca ptr, align 8
  %index.addr.i = alloca i32, align 4
  %this.addr.i14 = alloca ptr, align 8
  %this.addr.i12 = alloca ptr, align 8
  %this.addr.i10 = alloca ptr, align 8
  %slot.addr.i = alloca ptr, align 8
  %this.addr.i.i = alloca ptr, align 8
  %handle.i = alloca %"class.v8::Local", align 8
  %this.addr.i9 = alloca ptr, align 8
  %retval.i = alloca %"class.v8::ReturnValue", align 8
  %this.addr.i = alloca ptr, align 8
  %this.addr = alloca ptr, align 8
  %value.addr = alloca ptr, align 8
  %val = alloca %"class.v8::Local", align 8
  %ref.tmp = alloca %"class.v8::ReturnValue", align 8
  %agg.tmp = alloca %"class.v8::Local", align 8
  store ptr %this, ptr %this.addr, align 8
  store ptr %value, ptr %value.addr, align 8
  %this1 = load ptr, ptr %this.addr, align 8
  %0 = load ptr, ptr %value.addr, align 8
  %call = call ptr @_ZN6v8impl23V8LocalValueFromJsValueEP12napi_value__(ptr noundef %0)
  %coerce.dive = getelementptr inbounds %"class.v8::Local", ptr %val, i32 0, i32 0
  %coerce.dive2 = getelementptr inbounds %"class.v8::LocalBase", ptr %coerce.dive, i32 0, i32 0
  %coerce.dive3 = getelementptr inbounds %"class.v8::IndirectHandleBase", ptr %coerce.dive2, i32 0, i32 0
  store ptr %call, ptr %coerce.dive3, align 8
  %_cbinfo = getelementptr inbounds %"class.v8impl::(anonymous namespace)::CallbackWrapperBase", ptr %this1, i32 0, i32 1
  %1 = load ptr, ptr %_cbinfo, align 8
  store ptr %1, ptr %this.addr.i, align 8
  %this1.i = load ptr, ptr %this.addr.i, align 8
  %2 = load ptr, ptr %this1.i, align 8
  %arrayidx.i = getelementptr inbounds i64, ptr %2, i64 3
  store ptr %retval.i, ptr %this.addr.i10, align 8
  store ptr %arrayidx.i, ptr %slot.addr.i, align 8
  %this1.i11 = load ptr, ptr %this.addr.i10, align 8
  %3 = load ptr, ptr %slot.addr.i, align 8
  store ptr %3, ptr %this1.i11, align 8
  %4 = load ptr, ptr %retval.i, align 8
  %coerce.dive5 = getelementptr inbounds %"class.v8::ReturnValue", ptr %ref.tmp, i32 0, i32 0
  store ptr %4, ptr %coerce.dive5, align 8
  call void @llvm.memcpy.p0.p0.i64(ptr align 8 %agg.tmp, ptr align 8 %val, i64 8, i1 false)
  %coerce.dive6 = getelementptr inbounds %"class.v8::Local", ptr %agg.tmp, i32 0, i32 0
  %coerce.dive7 = getelementptr inbounds %"class.v8::LocalBase", ptr %coerce.dive6, i32 0, i32 0
  %coerce.dive8 = getelementptr inbounds %"class.v8::IndirectHandleBase", ptr %coerce.dive7, i32 0, i32 0
  %5 = load ptr, ptr %coerce.dive8, align 8
  store ptr %5, ptr %handle.i, align 8
  store ptr %ref.tmp, ptr %this.addr.i9, align 8
  %this3.i = load ptr, ptr %this.addr.i9, align 8
  store ptr %handle.i, ptr %this.addr.i.i, align 8
  %this1.i.i = load ptr, ptr %this.addr.i.i, align 8
  %6 = load ptr, ptr %this1.i.i, align 8
  %cmp.i.i = icmp eq ptr %6, null
  br i1 %cmp.i.i, label %if.then.i, label %if.else.i

if.then.i:                                        ; preds = %entry
  store ptr %this3.i, ptr %this.addr.i12, align 8
  %this1.i13 = load ptr, ptr %this.addr.i12, align 8
  store ptr %this1.i13, ptr %this.addr.i17, align 8
  %this1.i18 = load ptr, ptr %this.addr.i17, align 8
  %7 = load ptr, ptr %this1.i18, align 8
  %arrayidx.i19 = getelementptr inbounds i64, ptr %7, i64 -2
  %8 = load ptr, ptr %arrayidx.i19, align 8
  store ptr %8, ptr %isolate.addr.i, align 8
  store i32 5, ptr %index.addr.i, align 4
  %9 = load ptr, ptr %isolate.addr.i, align 8
  %10 = load i32, ptr %index.addr.i, align 4
  store ptr %9, ptr %isolate.addr.i20, align 8
  store i32 %10, ptr %index.addr.i21, align 4
  %11 = load ptr, ptr %isolate.addr.i20, align 8
  %12 = ptrtoint ptr %11 to i64
  %add.i = add i64 %12, 576
  %13 = load i32, ptr %index.addr.i21, align 4
  %mul.i = mul nsw i32 %13, 8
  %conv.i = sext i32 %mul.i to i64
  %add1.i = add i64 %add.i, %conv.i
  store i64 %add1.i, ptr %addr.i, align 8
  %14 = load i64, ptr %addr.i, align 8
  %15 = inttoptr i64 %14 to ptr
  %16 = load i64, ptr %15, align 8
  %17 = load ptr, ptr %this3.i, align 8
  store i64 %16, ptr %17, align 8
  br label %_ZN2v811ReturnValueINS_5ValueEE3SetIS1_EEvNS_5LocalIT_EE.exit

if.else.i:                                        ; preds = %entry
  store ptr %handle.i, ptr %this.addr.i14, align 8
  %this1.i15 = load ptr, ptr %this.addr.i14, align 8
  %18 = load ptr, ptr %this1.i15, align 8
  %19 = load i64, ptr %18, align 8
  %20 = load ptr, ptr %this3.i, align 8
  store i64 %19, ptr %20, align 8
  br label %_ZN2v811ReturnValueINS_5ValueEE3SetIS1_EEvNS_5LocalIT_EE.exit

_ZN2v811ReturnValueINS_5ValueEE3SetIS1_EEvNS_5LocalIT_EE.exit: ; preds = %if.else.i, %if.then.i
  ret void
}