; Function Attrs: mustprogress nofree norecurse nosync nounwind willreturn memory(readwrite, inaccessiblemem: none) uwtable
define internal void @_ZN6v8impl12_GLOBAL__N_123FunctionCallbackWrapper14SetReturnValueEP12napi_value__(ptr nocapture noundef nonnull readonly align 8 dereferenceable(48) %this, ptr noundef readonly %value) unnamed_addr #19 align 2 {
entry:
  %_cbinfo = getelementptr inbounds i8, ptr %this, i64 32
  %0 = load ptr, ptr %_cbinfo, align 8
  %1 = load ptr, ptr %0, align 8
  %cmp.i.i = icmp eq ptr %value, null
  br i1 %cmp.i.i, label %if.then.i, label %_ZN2v811ReturnValueINS_5ValueEE3SetIS1_EEvNS_5LocalIT_EE.exit

if.then.i:                                        ; preds = %entry
  %arrayidx.i19 = getelementptr inbounds i8, ptr %1, i64 8
  %2 = load ptr, ptr %arrayidx.i19, align 8
  %3 = ptrtoint ptr %2 to i64
  %add1.i = add i64 %3, 616
  %4 = inttoptr i64 %add1.i to ptr
  br label %_ZN2v811ReturnValueINS_5ValueEE3SetIS1_EEvNS_5LocalIT_EE.exit

_ZN2v811ReturnValueINS_5ValueEE3SetIS1_EEvNS_5LocalIT_EE.exit: ; preds = %entry, %if.then.i
  %storemerge.in = phi ptr [ %4, %if.then.i ], [ %value, %entry ]
  %arrayidx.i = getelementptr inbounds i8, ptr %1, i64 24
  %storemerge = load i64, ptr %storemerge.in, align 8
  store i64 %storemerge, ptr %arrayidx.i, align 8
  ret void
}